target datalayout = "e-m:e-p270:32:32-p271:32:32-p272:64:64-i64:64-i128:128-f80:128-n8:16:32:64-S128"
target triple = "x86_64-pc-linux-gnu"

%"class.icu_77::FormattedStringBuilder" = type { i8, %"union.icu_77::FormattedStringBuilder::ValueOrHeapArray", %"union.icu_77::FormattedStringBuilder::ValueOrHeapArray.0", i32, i32 }
%"union.icu_77::FormattedStringBuilder::ValueOrHeapArray" = type { %struct.anon, [64 x i8] }
%struct.anon = type { ptr, i32 }
%"union.icu_77::FormattedStringBuilder::ValueOrHeapArray.0" = type { %struct.anon.1, [24 x i8] }
%struct.anon.1 = type { ptr, i32 }

; Function Attrs: inlinehint mustprogress nounwind uwtable
define linkonce_odr noundef ptr @_ZNK6icu_7722FormattedStringBuilder10getCharPtrEv(ptr noundef nonnull align 8 dereferenceable(136) %0) #5 comdat align 2 {
  %2 = alloca ptr, align 8
  store ptr %0, ptr %2, align 8, !tbaa !3
  %3 = load ptr, ptr %2, align 8
  %4 = getelementptr inbounds nuw %"class.icu_77::FormattedStringBuilder", ptr %3, i32 0, i32 0
  %5 = load i8, ptr %4, align 8, !tbaa !8, !range !14, !noundef !15
  %6 = trunc i8 %5 to i1
  br i1 %6, label %7, label %11

7:                                                ; preds = %1
  %8 = getelementptr inbounds nuw %"class.icu_77::FormattedStringBuilder", ptr %3, i32 0, i32 1
  %9 = getelementptr inbounds nuw %struct.anon, ptr %8, i32 0, i32 0
  %10 = load ptr, ptr %9, align 8, !tbaa !16
  br label %14

11:                                               ; preds = %1
  %12 = getelementptr inbounds nuw %"class.icu_77::FormattedStringBuilder", ptr %3, i32 0, i32 1
  %13 = getelementptr inbounds [40 x i16], ptr %12, i64 0, i64 0
  br label %14

14:                                               ; preds = %11, %7
  %15 = phi ptr [ %10, %7 ], [ %13, %11 ]
  ret ptr %15
}

; Function Attrs: mustprogress uwtable
define noundef i32 @_ZNK6icu_7722FormattedStringBuilder17getFirstCodePointEv(ptr noundef nonnull align 8 dereferenceable(136) %0) #3 align 2 {
  %2 = alloca i32, align 4
  %3 = alloca ptr, align 8
  %4 = alloca i32, align 4
  %5 = alloca i16, align 2
  store ptr %0, ptr %3, align 8, !tbaa !3
  %6 = load ptr, ptr %3, align 8
  %7 = getelementptr inbounds nuw %"class.icu_77::FormattedStringBuilder", ptr %6, i32 0, i32 4
  %8 = load i32, ptr %7, align 4, !tbaa !13
  %9 = icmp eq i32 %8, 0
  br i1 %9, label %10, label %11

10:                                               ; preds = %1
  store i32 -1, ptr %2, align 4
  br label %57

11:                                               ; preds = %1
  call void @llvm.lifetime.start.p0(i64 4, ptr %4) #11
  br label %12

12:                                               ; preds = %11
  %13 = call noundef ptr @_ZNK6icu_7722FormattedStringBuilder10getCharPtrEv(ptr noundef nonnull align 8 dereferenceable(136) %6)
  %14 = getelementptr inbounds nuw %"class.icu_77::FormattedStringBuilder", ptr %6, i32 0, i32 3
  %15 = load i32, ptr %14, align 8, !tbaa !12
  %16 = sext i32 %15 to i64
  %17 = getelementptr inbounds i16, ptr %13, i64 %16
  %18 = getelementptr inbounds i16, ptr %17, i64 0
  %19 = load i16, ptr %18, align 2, !tbaa !25
  %20 = zext i16 %19 to i32
  store i32 %20, ptr %4, align 4, !tbaa !17
  %21 = load i32, ptr %4, align 4, !tbaa !17
  %22 = and i32 %21, -2048
  %23 = icmp eq i32 %22, 55296
  br i1 %23, label %24, label %53

24:                                               ; preds = %12
  call void @llvm.lifetime.start.p0(i64 2, ptr %5) #11
  %25 = load i32, ptr %4, align 4, !tbaa !17
  %26 = and i32 %25, 1024
  %27 = icmp eq i32 %26, 0
  br i1 %27, label %28, label %51

28:                                               ; preds = %24
  %29 = getelementptr inbounds nuw %"class.icu_77::FormattedStringBuilder", ptr %6, i32 0, i32 4
  %30 = load i32, ptr %29, align 4, !tbaa !13
  %31 = icmp ne i32 1, %30
  br i1 %31, label %32, label %50

32:                                               ; preds = %28
  %33 = call noundef ptr @_ZNK6icu_7722FormattedStringBuilder10getCharPtrEv(ptr noundef nonnull align 8 dereferenceable(136) %6)
  %34 = getelementptr inbounds nuw %"class.icu_77::FormattedStringBuilder", ptr %6, i32 0, i32 3
  %35 = load i32, ptr %34, align 8, !tbaa !12
  %36 = sext i32 %35 to i64
  %37 = getelementptr inbounds i16, ptr %33, i64 %36
  %38 = getelementptr inbounds i16, ptr %37, i64 1
  %39 = load i16, ptr %38, align 2, !tbaa !25
  store i16 %39, ptr %5, align 2, !tbaa !27
  %40 = zext i16 %39 to i32
  %41 = and i32 %40, -1024
  %42 = icmp eq i32 %41, 56320
  br i1 %42, label %43, label %50

43:                                               ; preds = %32
  %44 = load i32, ptr %4, align 4, !tbaa !17
  %45 = shl i32 %44, 10
  %46 = load i16, ptr %5, align 2, !tbaa !27
  %47 = zext i16 %46 to i32
  %48 = add nsw i32 %45, %47
  %49 = sub nsw i32 %48, 56613888
  store i32 %49, ptr %4, align 4, !tbaa !17
  br label %50

50:                                               ; preds = %43, %32, %28
  br label %52

51:                                               ; preds = %24
  br label %52

52:                                               ; preds = %51, %50
  call void @llvm.lifetime.end.p0(i64 2, ptr %5) #11
  br label %53

53:                                               ; preds = %52, %12
  br label %54

54:                                               ; preds = %53
  br label %55

55:                                               ; preds = %54
  %56 = load i32, ptr %4, align 4, !tbaa !17
  store i32 %56, ptr %2, align 4
  call void @llvm.lifetime.end.p0(i64 4, ptr %4) #11
  br label %57

57:                                               ; preds = %55, %10
  %58 = load i32, ptr %2, align 4
  ret i32 %58
}