; Function Attrs: mustprogress nofree norecurse nosync nounwind willreturn memory(read, inaccessiblemem: none) uwtable
define noundef range(i32 -1, 10559488) i32 @_ZNK6icu_7722FormattedStringBuilder17getFirstCodePointEv(ptr noundef nonnull readonly align 8 captures(none) dereferenceable(136) %0) local_unnamed_addr #9 align 2 {
  %2 = getelementptr inbounds nuw i8, ptr %0, i64 132
  %3 = load i32, ptr %2, align 4, !tbaa !10
  %4 = icmp eq i32 %3, 0
  br i1 %4, label %32, label %5

5:                                                ; preds = %1
  %6 = load i8, ptr %0, align 8, !tbaa !3, !range !11, !noundef !12
  %7 = trunc nuw i8 %6 to i1
  %8 = getelementptr inbounds nuw i8, ptr %0, i64 8
  %9 = load ptr, ptr %8, align 8
  %10 = select i1 %7, ptr %9, ptr %8
  %11 = getelementptr inbounds nuw i8, ptr %0, i64 128
  %12 = load i32, ptr %11, align 8, !tbaa !9
  %13 = sext i32 %12 to i64
  %14 = getelementptr inbounds i16, ptr %10, i64 %13
  %15 = load i16, ptr %14, align 2, !tbaa !14
  %16 = zext i16 %15 to i32
  %17 = and i32 %16, 63488
  %18 = icmp eq i32 %17, 55296
  br i1 %18, label %19, label %32

19:                                               ; preds = %5
  %20 = and i32 %16, 1024
  %21 = icmp ne i32 %20, 0
  %.not = icmp eq i32 %3, 1
  %or.cond = or i1 %.not, %21
  br i1 %or.cond, label %32, label %22

22:                                               ; preds = %19
  %23 = getelementptr inbounds nuw i8, ptr %14, i64 2
  %24 = load i16, ptr %23, align 2, !tbaa !14
  %25 = zext i16 %24 to i32
  %26 = and i32 %25, 64512
  %27 = icmp eq i32 %26, 56320
  br i1 %27, label %28, label %32

28:                                               ; preds = %22
  %29 = shl nuw nsw i32 %16, 10
  %30 = add nsw i32 %29, -56613888
  %31 = add nuw nsw i32 %30, %25
  br label %32

32:                                               ; preds = %5, %19, %22, %28, %1
  %.0 = phi i32 [ -1, %1 ], [ %16, %5 ], [ %31, %28 ], [ %16, %22 ], [ %16, %19 ]
  ret i32 %.0
}